; Function Attrs: mustprogress uwtable
define void @_ZN32pxrInternal_v0_24__pxrReserved__19HdCollectionsSchema13BuildRetainedEmPKNS_7TfTokenEPKSt10shared_ptrINS_16HdDataSourceBaseEE(ptr dead_on_unwind noalias nocapture writable writeonly sret(%"class.std::shared_ptr") align 8 %0, i64 noundef %1, ptr noundef %2, ptr noundef %3) local_unnamed_addr #1 align 2 personality ptr @__gxx_personality_v0 {
_ZNSt10shared_ptrIN32pxrInternal_v0_24__pxrReserved__29HdRetainedContainerDataSourceEED2Ev.exit:
  %4 = alloca %"class.std::shared_ptr.0", align 8
  call void @_ZN32pxrInternal_v0_24__pxrReserved__29HdRetainedContainerDataSource3NewEmPKNS_7TfTokenEPKSt10shared_ptrINS_16HdDataSourceBaseEE(ptr dead_on_unwind nonnull writable sret(%"class.std::shared_ptr.0") align 8 %4, i64 noundef %1, ptr noundef %2, ptr noundef %3)
  %5 = load ptr, ptr %4, align 8
  store ptr %5, ptr %0, align 8
  %6 = getelementptr inbounds nuw i8, ptr %0, i64 8
  %7 = getelementptr inbounds nuw i8, ptr %4, i64 8
  %8 = load ptr, ptr %7, align 8
  store ptr %8, ptr %6, align 8
  ret void
}